target datalayout = "e-m:e-p270:32:32-p271:32:32-p272:64:64-i64:64-i128:128-f80:128-n8:16:32:64-S128"
target triple = "x86_64-pc-linux-gnu"

%struct.H5C_cache_entry_t = type { ptr, i64, i64, ptr, i8, ptr, i8, i8, i8, i8, i32, i8, i8, i8, i8, i8, i32, ptr, i32, i32, i32, i32, i32, i8, i8, ptr, ptr, ptr, ptr, ptr, ptr, i8, i32, i8, i64, ptr, i64, i64, i32, i8, i32, i32, i8, ptr, ptr, ptr }
%struct.H5EA_hdr_t = type { %struct.H5C_cache_entry_t, %struct.H5EA_create_t, i64, %struct.H5EA_stat_t, %struct.anon.1, i64, i64, i64, ptr, i64, i8, i64, i64, i8, i64, ptr, i64, ptr, i8, ptr, ptr }
%struct.H5EA_create_t = type { ptr, i8, i8, i8, i8, i8, i8 }
%struct.H5EA_stat_t = type { %struct.anon, %struct.anon.0 }
%struct.anon = type { i64, i64, i64 }
%struct.anon.0 = type { i64, i64, i64, i64, i64, i64 }
%struct.anon.1 = type { i64, ptr }

@H5EA_init_g = external global i8, align 1
@H5_libterm_g = external global i8, align 1

; Function Attrs: nounwind uwtable
define internal i32 @H5EA__cache_hdr_image_len(ptr noundef %0, ptr noundef %1) #0 {
  %3 = alloca ptr, align 8
  %4 = alloca ptr, align 8
  %5 = alloca ptr, align 8
  store ptr %0, ptr %3, align 8, !tbaa !3
  store ptr %1, ptr %4, align 8, !tbaa !7
  call void @llvm.lifetime.start.p0(i64 8, ptr %5) #8
  %6 = load ptr, ptr %3, align 8, !tbaa !3
  store ptr %6, ptr %5, align 8, !tbaa !26
  %7 = load i8, ptr @H5EA_init_g, align 1, !tbaa !11, !range !13, !noundef !14
  %8 = trunc i8 %7 to i1
  br i1 %8, label %13, label %9

9:                                                ; preds = %2
  %10 = load i8, ptr @H5_libterm_g, align 1, !tbaa !11, !range !13, !noundef !14
  %11 = trunc i8 %10 to i1
  %12 = xor i1 %11, true
  br label %13

13:                                               ; preds = %9, %2
  %14 = phi i1 [ true, %2 ], [ %12, %9 ]
  %15 = xor i1 %14, true
  %16 = xor i1 %15, true
  %17 = zext i1 %16 to i32
  %18 = sext i32 %17 to i64
  %19 = call i64 @llvm.expect.i64(i64 %18, i64 1)
  %20 = icmp ne i64 %19, 0
  br i1 %20, label %21, label %26

21:                                               ; preds = %13
  %22 = load ptr, ptr %5, align 8, !tbaa !26
  %23 = getelementptr inbounds nuw %struct.H5EA_hdr_t, ptr %22, i32 0, i32 7
  %24 = load i64, ptr %23, align 8, !tbaa !80
  %25 = load ptr, ptr %4, align 8, !tbaa !7
  store i64 %24, ptr %25, align 8, !tbaa !19
  br label %26

26:                                               ; preds = %21, %13
  call void @llvm.lifetime.end.p0(i64 8, ptr %5) #8
  ret i32 0
}